target datalayout = "e-m:e-p270:32:32-p271:32:32-p272:64:64-i64:64-i128:128-f80:128-n8:16:32:64-S128"
target triple = "x86_64-pc-linux-gnu"

%struct.expr_counter_proc = type { i32 }

; Function Attrs: mustprogress uwtable
define linkonce_odr hidden void @_Z13for_each_exprI17expr_counter_procEvRT_R8obj_markI4expr10bit_vector14default_t2uintIS4_EEPS4_(ptr noundef nonnull align 4 dereferenceable(4) %0, ptr noundef nonnull align 8 dereferenceable(24) %1, ptr noundef %2) #4 comdat {
  %4 = alloca ptr, align 8
  %5 = alloca ptr, align 8
  %6 = alloca ptr, align 8
  store ptr %0, ptr %4, align 8, !tbaa !13
  store ptr %1, ptr %5, align 8, !tbaa !8
  store ptr %2, ptr %6, align 8, !tbaa !3
  %7 = load ptr, ptr %4, align 8, !tbaa !13
  %8 = load ptr, ptr %5, align 8, !tbaa !8
  %9 = load ptr, ptr %6, align 8, !tbaa !3
  call void @_Z18for_each_expr_coreI17expr_counter_proc8obj_markI4expr10bit_vector14default_t2uintIS2_EELb1ELb0EEvRT_RT0_PS2_(ptr noundef nonnull align 4 dereferenceable(4) %7, ptr noundef nonnull align 8 dereferenceable(24) %8, ptr noundef %9)
  ret void
}

; Function Attrs: mustprogress nounwind uwtable
define linkonce_odr hidden void @_ZN17expr_counter_procC2Ev(ptr noundef nonnull align 4 dereferenceable(4) %0) unnamed_addr #6 comdat align 2 {
  %2 = alloca ptr, align 8
  store ptr %0, ptr %2, align 8, !tbaa !13
  %3 = load ptr, ptr %2, align 8
  %4 = getelementptr inbounds nuw %struct.expr_counter_proc, ptr %3, i32 0, i32 0
  store i32 0, ptr %4, align 4, !tbaa !10
  ret void
}

; Function Attrs: mustprogress uwtable
define hidden noundef i32 @_Z13get_num_exprsP4exprR8obj_markIS_10bit_vector14default_t2uintIS_EE(ptr noundef %0, ptr noundef nonnull align 8 dereferenceable(24) %1) #4 {
  %3 = alloca ptr, align 8
  %4 = alloca ptr, align 8
  %5 = alloca %struct.expr_counter_proc, align 4
  store ptr %0, ptr %3, align 8, !tbaa !3
  store ptr %1, ptr %4, align 8, !tbaa !8
  call void @llvm.lifetime.start.p0(i64 4, ptr %5) #3
  call void @_ZN17expr_counter_procC2Ev(ptr noundef nonnull align 4 dereferenceable(4) %5)
  %6 = load ptr, ptr %4, align 8, !tbaa !8
  %7 = load ptr, ptr %3, align 8, !tbaa !3
  call void @_Z13for_each_exprI17expr_counter_procEvRT_R8obj_markI4expr10bit_vector14default_t2uintIS4_EEPS4_(ptr noundef nonnull align 4 dereferenceable(4) %5, ptr noundef nonnull align 8 dereferenceable(24) %6, ptr noundef %7)
  %8 = getelementptr inbounds nuw %struct.expr_counter_proc, ptr %5, i32 0, i32 0
  %9 = load i32, ptr %8, align 4, !tbaa !10
  call void @llvm.lifetime.end.p0(i64 4, ptr %5) #3
  ret i32 %9
}