; Function Attrs: mustprogress uwtable
define hidden noundef i32 @_Z13get_num_exprsP4exprR8obj_markIS_10bit_vector14default_t2uintIS_EE(ptr noundef %0, ptr noundef nonnull align 8 dereferenceable(24) %1) local_unnamed_addr #3 {
  %3 = alloca %struct.expr_counter_proc, align 4
  call void @llvm.lifetime.start.p0(i64 4, ptr nonnull %3) #24
  store i32 0, ptr %3, align 4, !tbaa !3
  call void @_Z18for_each_expr_coreI17expr_counter_proc8obj_markI4expr10bit_vector14default_t2uintIS2_EELb1ELb0EEvRT_RT0_PS2_(ptr noundef nonnull align 4 dereferenceable(4) %3, ptr noundef nonnull align 8 dereferenceable(24) %1, ptr noundef %0)
  %4 = load i32, ptr %3, align 4, !tbaa !3
  call void @llvm.lifetime.end.p0(i64 4, ptr nonnull %3) #24
  ret i32 %4
}